target datalayout = "e-m:e-p270:32:32-p271:32:32-p272:64:64-i64:64-i128:128-f80:128-n8:16:32:64-S128"
target triple = "x86_64-unknown-linux-gnu"

%"class.std::unique_ptr.12" = type { %"struct.std::__uniq_ptr_data.13" }
%"struct.std::__uniq_ptr_data.13" = type { %"class.std::__uniq_ptr_impl.14" }
%"class.std::__uniq_ptr_impl.14" = type { %"class.std::tuple.15" }
%"class.std::tuple.15" = type { %"struct.std::_Tuple_impl.16" }
%"struct.std::_Tuple_impl.16" = type { %"struct.std::_Head_base.19" }
%"struct.std::_Head_base.19" = type { ptr }
%"class.grpc_core::EndpointList::Endpoint" = type { %"class.grpc_core::InternallyRefCounted", %"class.grpc_core::RefCountedPtr.11", %"class.std::unique_ptr.12", %"class.std::optional", %"class.grpc_core::RefCountedPtr.20" }
%"class.grpc_core::InternallyRefCounted" = type { %"class.grpc_core::Orphanable", %"class.grpc_core::RefCount" }
%"class.grpc_core::Orphanable" = type { ptr }
%"class.grpc_core::RefCount" = type { %"struct.std::atomic" }
%"struct.std::atomic" = type { %"struct.std::__atomic_base" }
%"struct.std::__atomic_base" = type { i64 }
%"class.grpc_core::RefCountedPtr.11" = type { ptr }
%"class.std::optional" = type { %"struct.std::_Optional_base" }
%"struct.std::_Optional_base" = type { %"struct.std::_Optional_payload" }
%"struct.std::_Optional_payload" = type { %"struct.std::_Optional_payload_base.base", [3 x i8] }
%"struct.std::_Optional_payload_base.base" = type <{ %"union.std::_Optional_payload_base<grpc_connectivity_state>::_Storage", i8 }>
%"union.std::_Optional_payload_base<grpc_connectivity_state>::_Storage" = type { i32 }
%"class.grpc_core::RefCountedPtr.20" = type { ptr }
%"class.grpc_core::EndpointList" = type { %"class.grpc_core::InternallyRefCounted.67", %"class.grpc_core::RefCountedPtr.68", ptr, %"class.std::vector.69" }
%"class.grpc_core::InternallyRefCounted.67" = type { %"class.grpc_core::Orphanable", %"class.grpc_core::RefCount" }
%"class.grpc_core::RefCountedPtr.68" = type { ptr }
%"class.std::vector.69" = type { %"struct.std::_Vector_base.70" }
%"struct.std::_Vector_base.70" = type { %"struct.std::_Vector_base<std::unique_ptr<grpc_core::EndpointList::Endpoint, grpc_core::OrphanableDelete>, std::allocator<std::unique_ptr<grpc_core::EndpointList::Endpoint, grpc_core::OrphanableDelete>>>::_Vector_impl" }
%"struct.std::_Vector_base<std::unique_ptr<grpc_core::EndpointList::Endpoint, grpc_core::OrphanableDelete>, std::allocator<std::unique_ptr<grpc_core::EndpointList::Endpoint, grpc_core::OrphanableDelete>>>::_Vector_impl" = type { %"struct.std::_Vector_base<std::unique_ptr<grpc_core::EndpointList::Endpoint, grpc_core::OrphanableDelete>, std::allocator<std::unique_ptr<grpc_core::EndpointList::Endpoint, grpc_core::OrphanableDelete>>>::_Vector_impl_data" }
%"struct.std::_Vector_base<std::unique_ptr<grpc_core::EndpointList::Endpoint, grpc_core::OrphanableDelete>, std::allocator<std::unique_ptr<grpc_core::EndpointList::Endpoint, grpc_core::OrphanableDelete>>>::_Vector_impl_data" = type { ptr, ptr, ptr }
%"class.std::unique_ptr.129" = type { %"struct.std::__uniq_ptr_data.130" }
%"struct.std::__uniq_ptr_data.130" = type { %"class.std::__uniq_ptr_impl.131" }
%"class.std::__uniq_ptr_impl.131" = type { %"class.std::tuple.132" }
%"class.std::tuple.132" = type { %"struct.std::_Tuple_impl.133" }
%"struct.std::_Tuple_impl.133" = type { %"struct.std::_Head_base.134" }
%"struct.std::_Head_base.134" = type { ptr }

; Function Attrs: mustprogress nounwind uwtable
define linkonce_odr noundef nonnull align 8 dereferenceable(8) ptr @_ZNSt10_Head_baseILm0EPN9grpc_core12EndpointList8EndpointELb0EE7_M_headERKS4_(ptr noundef nonnull align 8 dereferenceable(8) %__b) #5 comdat align 2 {
entry:
  %__b.addr = alloca ptr, align 8
  store ptr %__b, ptr %__b.addr, align 8
  %0 = load ptr, ptr %__b.addr, align 8
  %_M_head_impl = getelementptr inbounds %"struct.std::_Head_base.134", ptr %0, i32 0, i32 0
  ret ptr %_M_head_impl
}

; Function Attrs: mustprogress nounwind uwtable
define linkonce_odr noundef nonnull align 8 dereferenceable(8) ptr @_ZNSt11_Tuple_implILm0EJPN9grpc_core12EndpointList8EndpointENS0_16OrphanableDeleteEEE7_M_headERKS5_(ptr noundef nonnull align 8 dereferenceable(8) %__t) #5 comdat align 2 {
entry:
  %__t.addr = alloca ptr, align 8
  store ptr %__t, ptr %__t.addr, align 8
  %0 = load ptr, ptr %__t.addr, align 8
  %call = call noundef nonnull align 8 dereferenceable(8) ptr @_ZNSt10_Head_baseILm0EPN9grpc_core12EndpointList8EndpointELb0EE7_M_headERKS4_(ptr noundef nonnull align 8 dereferenceable(8) %0) #3
  ret ptr %call
}

; Function Attrs: mustprogress nounwind uwtable
define linkonce_odr noundef nonnull align 8 dereferenceable(8) ptr @_ZSt12__get_helperILm0EPN9grpc_core12EndpointList8EndpointEJNS0_16OrphanableDeleteEEERKT0_RKSt11_Tuple_implIXT_EJS5_DpT1_EE(ptr noundef nonnull align 8 dereferenceable(8) %__t) #5 comdat {
entry:
  %__t.addr = alloca ptr, align 8
  store ptr %__t, ptr %__t.addr, align 8
  %0 = load ptr, ptr %__t.addr, align 8
  %call = call noundef nonnull align 8 dereferenceable(8) ptr @_ZNSt11_Tuple_implILm0EJPN9grpc_core12EndpointList8EndpointENS0_16OrphanableDeleteEEE7_M_headERKS5_(ptr noundef nonnull align 8 dereferenceable(8) %0) #3
  ret ptr %call
}

; Function Attrs: mustprogress nounwind uwtable
define linkonce_odr noundef nonnull align 8 dereferenceable(8) ptr @_ZSt3getILm0EJPN9grpc_core12EndpointList8EndpointENS0_16OrphanableDeleteEEERKNSt13tuple_elementIXT_ESt5tupleIJDpT0_EEE4typeERKS9_(ptr noundef nonnull align 8 dereferenceable(8) %__t) #5 comdat {
entry:
  %__t.addr = alloca ptr, align 8
  store ptr %__t, ptr %__t.addr, align 8
  %0 = load ptr, ptr %__t.addr, align 8
  %call = call noundef nonnull align 8 dereferenceable(8) ptr @_ZSt12__get_helperILm0EPN9grpc_core12EndpointList8EndpointEJNS0_16OrphanableDeleteEEERKT0_RKSt11_Tuple_implIXT_EJS5_DpT1_EE(ptr noundef nonnull align 8 dereferenceable(8) %0) #3
  ret ptr %call
}

; Function Attrs: mustprogress nounwind uwtable
define linkonce_odr noundef ptr @_ZNKSt15__uniq_ptr_implIN9grpc_core12EndpointList8EndpointENS0_16OrphanableDeleteEE6_M_ptrEv(ptr noundef nonnull align 8 dereferenceable(8) %this) #5 comdat align 2 {
entry:
  %this.addr = alloca ptr, align 8
  store ptr %this, ptr %this.addr, align 8
  %this1 = load ptr, ptr %this.addr, align 8
  %_M_t = getelementptr inbounds %"class.std::__uniq_ptr_impl.131", ptr %this1, i32 0, i32 0
  %call = call noundef nonnull align 8 dereferenceable(8) ptr @_ZSt3getILm0EJPN9grpc_core12EndpointList8EndpointENS0_16OrphanableDeleteEEERKNSt13tuple_elementIXT_ESt5tupleIJDpT0_EEE4typeERKS9_(ptr noundef nonnull align 8 dereferenceable(8) %_M_t) #3
  %0 = load ptr, ptr %call, align 8
  ret ptr %0
}

; Function Attrs: mustprogress nounwind uwtable
define linkonce_odr noundef ptr @_ZNKSt10unique_ptrIN9grpc_core12EndpointList8EndpointENS0_16OrphanableDeleteEE3getEv(ptr noundef nonnull align 8 dereferenceable(8) %this) #5 comdat align 2 {
entry:
  %this.addr = alloca ptr, align 8
  store ptr %this, ptr %this.addr, align 8
  %this1 = load ptr, ptr %this.addr, align 8
  %_M_t = getelementptr inbounds %"class.std::unique_ptr.129", ptr %this1, i32 0, i32 0
  %call = call noundef ptr @_ZNKSt15__uniq_ptr_implIN9grpc_core12EndpointList8EndpointENS0_16OrphanableDeleteEE6_M_ptrEv(ptr noundef nonnull align 8 dereferenceable(8) %_M_t) #3
  ret ptr %call
}

; Function Attrs: mustprogress nounwind uwtable
define linkonce_odr noundef nonnull align 8 dereferenceable(8) ptr @_ZNSt6vectorISt10unique_ptrIN9grpc_core12EndpointList8EndpointENS1_16OrphanableDeleteEESaIS5_EEixEm(ptr noundef nonnull align 8 dereferenceable(24) %this, i64 noundef %__n) #5 comdat align 2 {
entry:
  %this.addr = alloca ptr, align 8
  %__n.addr = alloca i64, align 8
  store ptr %this, ptr %this.addr, align 8
  store i64 %__n, ptr %__n.addr, align 8
  %this1 = load ptr, ptr %this.addr, align 8
  %_M_impl = getelementptr inbounds %"struct.std::_Vector_base.70", ptr %this1, i32 0, i32 0
  %_M_start = getelementptr inbounds %"struct.std::_Vector_base<std::unique_ptr<grpc_core::EndpointList::Endpoint, grpc_core::OrphanableDelete>, std::allocator<std::unique_ptr<grpc_core::EndpointList::Endpoint, grpc_core::OrphanableDelete>>>::_Vector_impl_data", ptr %_M_impl, i32 0, i32 0
  %0 = load ptr, ptr %_M_start, align 8
  %1 = load i64, ptr %__n.addr, align 8
  %add.ptr = getelementptr inbounds %"class.std::unique_ptr.129", ptr %0, i64 %1
  ret ptr %add.ptr
}

; Function Attrs: mustprogress nounwind uwtable
define linkonce_odr noundef i64 @_ZNKSt6vectorISt10unique_ptrIN9grpc_core12EndpointList8EndpointENS1_16OrphanableDeleteEESaIS5_EE4sizeEv(ptr noundef nonnull align 8 dereferenceable(24) %this) #5 comdat align 2 {
entry:
  %this.addr = alloca ptr, align 8
  store ptr %this, ptr %this.addr, align 8
  %this1 = load ptr, ptr %this.addr, align 8
  %_M_impl = getelementptr inbounds %"struct.std::_Vector_base.70", ptr %this1, i32 0, i32 0
  %_M_finish = getelementptr inbounds %"struct.std::_Vector_base<std::unique_ptr<grpc_core::EndpointList::Endpoint, grpc_core::OrphanableDelete>, std::allocator<std::unique_ptr<grpc_core::EndpointList::Endpoint, grpc_core::OrphanableDelete>>>::_Vector_impl_data", ptr %_M_impl, i32 0, i32 1
  %0 = load ptr, ptr %_M_finish, align 8
  %_M_impl2 = getelementptr inbounds %"struct.std::_Vector_base.70", ptr %this1, i32 0, i32 0
  %_M_start = getelementptr inbounds %"struct.std::_Vector_base<std::unique_ptr<grpc_core::EndpointList::Endpoint, grpc_core::OrphanableDelete>, std::allocator<std::unique_ptr<grpc_core::EndpointList::Endpoint, grpc_core::OrphanableDelete>>>::_Vector_impl_data", ptr %_M_impl2, i32 0, i32 0
  %1 = load ptr, ptr %_M_start, align 8
  %sub.ptr.lhs.cast = ptrtoint ptr %0 to i64
  %sub.ptr.rhs.cast = ptrtoint ptr %1 to i64
  %sub.ptr.sub = sub i64 %sub.ptr.lhs.cast, %sub.ptr.rhs.cast
  %sub.ptr.div = sdiv exact i64 %sub.ptr.sub, 8
  ret i64 %sub.ptr.div
}

; Function Attrs: mustprogress nounwind uwtable
define linkonce_odr noundef ptr @_ZNK9grpc_core13RefCountedPtrINS_12EndpointListEEptEv(ptr noundef nonnull align 8 dereferenceable(8) %this) #5 comdat align 2 {
entry:
  %this.addr = alloca ptr, align 8
  store ptr %this, ptr %this.addr, align 8
  %this1 = load ptr, ptr %this.addr, align 8
  %value_ = getelementptr inbounds %"class.grpc_core::RefCountedPtr.11", ptr %this1, i32 0, i32 0
  %0 = load ptr, ptr %value_, align 8
  ret ptr %0
}

; Function Attrs: mustprogress uwtable
define noundef i64 @_ZNK9grpc_core12EndpointList8Endpoint5IndexEv(ptr noundef nonnull align 8 dereferenceable(48) %this) #4 align 2 {
entry:
  %retval = alloca i64, align 8
  %this.addr = alloca ptr, align 8
  %i = alloca i64, align 8
  store ptr %this, ptr %this.addr, align 8
  %this1 = load ptr, ptr %this.addr, align 8
  store i64 0, ptr %i, align 8
  br label %for.cond

for.cond:                                         ; preds = %for.inc, %entry
  %0 = load i64, ptr %i, align 8
  %endpoint_list_ = getelementptr inbounds %"class.grpc_core::EndpointList::Endpoint", ptr %this1, i32 0, i32 1
  %call = call noundef ptr @_ZNK9grpc_core13RefCountedPtrINS_12EndpointListEEptEv(ptr noundef nonnull align 8 dereferenceable(8) %endpoint_list_)
  %endpoints_ = getelementptr inbounds %"class.grpc_core::EndpointList", ptr %call, i32 0, i32 3
  %call2 = call noundef i64 @_ZNKSt6vectorISt10unique_ptrIN9grpc_core12EndpointList8EndpointENS1_16OrphanableDeleteEESaIS5_EE4sizeEv(ptr noundef nonnull align 8 dereferenceable(24) %endpoints_) #3
  %cmp = icmp ult i64 %0, %call2
  br i1 %cmp, label %for.body, label %for.end

for.body:                                         ; preds = %for.cond
  %endpoint_list_3 = getelementptr inbounds %"class.grpc_core::EndpointList::Endpoint", ptr %this1, i32 0, i32 1
  %call4 = call noundef ptr @_ZNK9grpc_core13RefCountedPtrINS_12EndpointListEEptEv(ptr noundef nonnull align 8 dereferenceable(8) %endpoint_list_3)
  %endpoints_5 = getelementptr inbounds %"class.grpc_core::EndpointList", ptr %call4, i32 0, i32 3
  %1 = load i64, ptr %i, align 8
  %call6 = call noundef nonnull align 8 dereferenceable(8) ptr @_ZNSt6vectorISt10unique_ptrIN9grpc_core12EndpointList8EndpointENS1_16OrphanableDeleteEESaIS5_EEixEm(ptr noundef nonnull align 8 dereferenceable(24) %endpoints_5, i64 noundef %1) #3
  %call7 = call noundef ptr @_ZNKSt10unique_ptrIN9grpc_core12EndpointList8EndpointENS0_16OrphanableDeleteEE3getEv(ptr noundef nonnull align 8 dereferenceable(8) %call6) #3
  %cmp8 = icmp eq ptr %call7, %this1
  br i1 %cmp8, label %if.then, label %if.end

if.then:                                          ; preds = %for.body
  %2 = load i64, ptr %i, align 8
  store i64 %2, ptr %retval, align 8
  br label %return

if.end:                                           ; preds = %for.body
  br label %for.inc

for.inc:                                          ; preds = %if.end
  %3 = load i64, ptr %i, align 8
  %inc = add i64 %3, 1
  store i64 %inc, ptr %i, align 8
  br label %for.cond, !llvm.loop !4

for.end:                                          ; preds = %for.cond
  store i64 -1, ptr %retval, align 8
  br label %return

return:                                           ; preds = %for.end, %if.then
  %4 = load i64, ptr %retval, align 8
  ret i64 %4
}