; Function Attrs: mustprogress nofree norecurse nosync nounwind willreturn memory(read, inaccessiblemem: none) uwtable
define noundef i64 @_ZNK9grpc_core12EndpointList8Endpoint5IndexEv(ptr noundef nonnull readonly align 8 dereferenceable(48) %this) local_unnamed_addr #7 align 2 {
entry:
  %endpoint_list_ = getelementptr inbounds i8, ptr %this, i64 16
  %0 = load ptr, ptr %endpoint_list_, align 8
  %endpoints_ = getelementptr inbounds i8, ptr %0, i64 32
  %_M_finish.i = getelementptr inbounds i8, ptr %0, i64 40
  %1 = load ptr, ptr %_M_finish.i, align 8
  %2 = load ptr, ptr %endpoints_, align 8
  %cmp4.not = icmp eq ptr %1, %2
  br i1 %cmp4.not, label %return, label %for.body.preheader

for.body.preheader:                               ; preds = %entry
  %sub.ptr.lhs.cast.i = ptrtoint ptr %1 to i64
  %sub.ptr.rhs.cast.i = ptrtoint ptr %2 to i64
  %sub.ptr.sub.i = sub i64 %sub.ptr.lhs.cast.i, %sub.ptr.rhs.cast.i
  %sub.ptr.div.i = ashr exact i64 %sub.ptr.sub.i, 3
  %umax = tail call i64 @llvm.umax.i64(i64 %sub.ptr.div.i, i64 1)
  br label %for.body

for.body:                                         ; preds = %for.body.preheader, %for.inc
  %i.05 = phi i64 [ %inc, %for.inc ], [ 0, %for.body.preheader ]
  %add.ptr.i = getelementptr inbounds %"class.std::unique_ptr.129", ptr %2, i64 %i.05
  %3 = load ptr, ptr %add.ptr.i, align 8
  %cmp8 = icmp eq ptr %3, %this
  br i1 %cmp8, label %return, label %for.inc

for.inc:                                          ; preds = %for.body
  %inc = add nuw i64 %i.05, 1
  %exitcond.not = icmp eq i64 %inc, %umax
  br i1 %exitcond.not, label %return, label %for.body, !llvm.loop !24

return:                                           ; preds = %for.body, %for.inc, %entry
  %retval.0 = phi i64 [ -1, %entry ], [ -1, %for.inc ], [ %i.05, %for.body ]
  ret i64 %retval.0
}